target datalayout = "e-m:e-p270:32:32-p271:32:32-p272:64:64-i64:64-i128:128-f80:128-n8:16:32:64-S128"
target triple = "x86_64-unknown-linux-gnu"

%"class.Imath_3_2::Vec2" = type { i32, i32 }
%"class.Imf_3_2::ImageLevel" = type { ptr, ptr, i32, i32, %"class.Imath_3_2::Box" }
%"class.Imath_3_2::Box" = type { %"class.Imath_3_2::Vec2", %"class.Imath_3_2::Vec2" }

; Function Attrs: mustprogress nounwind uwtable
define linkonce_odr hidden noundef nonnull align 4 dereferenceable(8) ptr @_ZN9Imath_3_24Vec2IiEaSERKS1_(ptr noundef nonnull align 4 dereferenceable(8) %this, ptr noundef nonnull align 4 dereferenceable(8) %v) #4 comdat align 2 {
entry:
  %this.addr = alloca ptr, align 8
  %v.addr = alloca ptr, align 8
  store ptr %this, ptr %this.addr, align 8
  store ptr %v, ptr %v.addr, align 8
  %this1 = load ptr, ptr %this.addr, align 8
  %0 = load ptr, ptr %v.addr, align 8
  %x = getelementptr inbounds %"class.Imath_3_2::Vec2", ptr %0, i32 0, i32 0
  %1 = load i32, ptr %x, align 4
  %x2 = getelementptr inbounds %"class.Imath_3_2::Vec2", ptr %this1, i32 0, i32 0
  store i32 %1, ptr %x2, align 4
  %2 = load ptr, ptr %v.addr, align 8
  %y = getelementptr inbounds %"class.Imath_3_2::Vec2", ptr %2, i32 0, i32 1
  %3 = load i32, ptr %y, align 4
  %y3 = getelementptr inbounds %"class.Imath_3_2::Vec2", ptr %this1, i32 0, i32 1
  store i32 %3, ptr %y3, align 4
  ret ptr %this1
}

; Function Attrs: mustprogress nounwind uwtable
define linkonce_odr hidden void @_ZN9Imath_3_24Vec2IiEC2Ev(ptr noundef nonnull align 4 dereferenceable(8) %this) unnamed_addr #4 comdat align 2 {
entry:
  %this.addr = alloca ptr, align 8
  store ptr %this, ptr %this.addr, align 8
  ret void
}

; Function Attrs: mustprogress nounwind uwtable
define linkonce_odr hidden void @_ZN9Imath_3_23BoxINS_4Vec2IiEEEC2ERKS2_S5_(ptr noundef nonnull align 4 dereferenceable(16) %this, ptr noundef nonnull align 4 dereferenceable(8) %minT, ptr noundef nonnull align 4 dereferenceable(8) %maxT) unnamed_addr #4 comdat align 2 {
entry:
  %this.addr = alloca ptr, align 8
  %minT.addr = alloca ptr, align 8
  %maxT.addr = alloca ptr, align 8
  store ptr %this, ptr %this.addr, align 8
  store ptr %minT, ptr %minT.addr, align 8
  store ptr %maxT, ptr %maxT.addr, align 8
  %this1 = load ptr, ptr %this.addr, align 8
  %min = getelementptr inbounds %"class.Imath_3_2::Box", ptr %this1, i32 0, i32 0
  call void @_ZN9Imath_3_24Vec2IiEC2Ev(ptr noundef nonnull align 4 dereferenceable(8) %min) #3
  %max = getelementptr inbounds %"class.Imath_3_2::Box", ptr %this1, i32 0, i32 1
  call void @_ZN9Imath_3_24Vec2IiEC2Ev(ptr noundef nonnull align 4 dereferenceable(8) %max) #3
  %0 = load ptr, ptr %minT.addr, align 8
  %min2 = getelementptr inbounds %"class.Imath_3_2::Box", ptr %this1, i32 0, i32 0
  %call = call noundef nonnull align 4 dereferenceable(8) ptr @_ZN9Imath_3_24Vec2IiEaSERKS1_(ptr noundef nonnull align 4 dereferenceable(8) %min2, ptr noundef nonnull align 4 dereferenceable(8) %0) #3
  %1 = load ptr, ptr %maxT.addr, align 8
  %max3 = getelementptr inbounds %"class.Imath_3_2::Box", ptr %this1, i32 0, i32 1
  %call4 = call noundef nonnull align 4 dereferenceable(8) ptr @_ZN9Imath_3_24Vec2IiEaSERKS1_(ptr noundef nonnull align 4 dereferenceable(8) %max3, ptr noundef nonnull align 4 dereferenceable(8) %1) #3
  ret void
}

; Function Attrs: mustprogress nounwind uwtable
define linkonce_odr hidden void @_ZN9Imath_3_24Vec2IiEC2Eii(ptr noundef nonnull align 4 dereferenceable(8) %this, i32 noundef %a, i32 noundef %b) unnamed_addr #4 comdat align 2 {
entry:
  %this.addr = alloca ptr, align 8
  %a.addr = alloca i32, align 4
  %b.addr = alloca i32, align 4
  store ptr %this, ptr %this.addr, align 8
  store i32 %a, ptr %a.addr, align 4
  store i32 %b, ptr %b.addr, align 4
  %this1 = load ptr, ptr %this.addr, align 8
  %x = getelementptr inbounds %"class.Imath_3_2::Vec2", ptr %this1, i32 0, i32 0
  %0 = load i32, ptr %a.addr, align 4
  store i32 %0, ptr %x, align 4
  %y = getelementptr inbounds %"class.Imath_3_2::Vec2", ptr %this1, i32 0, i32 1
  %1 = load i32, ptr %b.addr, align 4
  store i32 %1, ptr %y, align 4
  ret void
}

; Function Attrs: mustprogress nounwind uwtable
define void @_ZN7Imf_3_210ImageLevelC2ERNS_5ImageEii(ptr noundef nonnull align 8 dereferenceable(40) %this, ptr noundef nonnull align 1 %image, i32 noundef %xLevelNumber, i32 noundef %yLevelNumber) unnamed_addr #4 align 2 {
entry:
  %this.addr = alloca ptr, align 8
  %image.addr = alloca ptr, align 8
  %xLevelNumber.addr = alloca i32, align 4
  %yLevelNumber.addr = alloca i32, align 4
  %ref.tmp = alloca %"class.Imath_3_2::Vec2", align 4
  %ref.tmp2 = alloca %"class.Imath_3_2::Vec2", align 4
  store ptr %this, ptr %this.addr, align 8
  store ptr %image, ptr %image.addr, align 8
  store i32 %xLevelNumber, ptr %xLevelNumber.addr, align 4
  store i32 %yLevelNumber, ptr %yLevelNumber.addr, align 4
  %this1 = load ptr, ptr %this.addr, align 8
  store ptr getelementptr inbounds ({ [11 x ptr] }, ptr @_ZTVN7Imf_3_210ImageLevelE, i32 0, i32 0, i32 2), ptr %this1, align 8
  %_image = getelementptr inbounds %"class.Imf_3_2::ImageLevel", ptr %this1, i32 0, i32 1
  %0 = load ptr, ptr %image.addr, align 8
  store ptr %0, ptr %_image, align 8
  %_xLevelNumber = getelementptr inbounds %"class.Imf_3_2::ImageLevel", ptr %this1, i32 0, i32 2
  %1 = load i32, ptr %xLevelNumber.addr, align 4
  store i32 %1, ptr %_xLevelNumber, align 8
  %_yLevelNumber = getelementptr inbounds %"class.Imf_3_2::ImageLevel", ptr %this1, i32 0, i32 3
  %2 = load i32, ptr %yLevelNumber.addr, align 4
  store i32 %2, ptr %_yLevelNumber, align 4
  %_dataWindow = getelementptr inbounds %"class.Imf_3_2::ImageLevel", ptr %this1, i32 0, i32 4
  call void @_ZN9Imath_3_24Vec2IiEC2Eii(ptr noundef nonnull align 4 dereferenceable(8) %ref.tmp, i32 noundef 0, i32 noundef 0) #3
  call void @_ZN9Imath_3_24Vec2IiEC2Eii(ptr noundef nonnull align 4 dereferenceable(8) %ref.tmp2, i32 noundef -1, i32 noundef -1) #3
  call void @_ZN9Imath_3_23BoxINS_4Vec2IiEEEC2ERKS2_S5_(ptr noundef nonnull align 4 dereferenceable(16) %_dataWindow, ptr noundef nonnull align 4 dereferenceable(8) %ref.tmp, ptr noundef nonnull align 4 dereferenceable(8) %ref.tmp2) #3
  ret void
}