; Function Attrs: mustprogress nofree norecurse nosync nounwind willreturn memory(argmem: write) uwtable
define void @_ZN7Imf_3_210ImageLevelC2ERNS_5ImageEii(ptr nocapture noundef nonnull writeonly align 8 dereferenceable(40) %this, ptr noundef nonnull align 1 %image, i32 noundef %xLevelNumber, i32 noundef %yLevelNumber) unnamed_addr #3 align 2 {
entry:
  store ptr getelementptr inbounds ({ [11 x ptr] }, ptr @_ZTVN7Imf_3_210ImageLevelE, i64 0, i32 0, i64 2), ptr %this, align 8
  %_image = getelementptr inbounds i8, ptr %this, i64 8
  store ptr %image, ptr %_image, align 8
  %_xLevelNumber = getelementptr inbounds i8, ptr %this, i64 16
  store i32 %xLevelNumber, ptr %_xLevelNumber, align 8
  %_yLevelNumber = getelementptr inbounds i8, ptr %this, i64 20
  store i32 %yLevelNumber, ptr %_yLevelNumber, align 4
  %_dataWindow = getelementptr inbounds i8, ptr %this, i64 24
  store <4 x i32> <i32 0, i32 0, i32 -1, i32 -1>, ptr %_dataWindow, align 8
  ret void
}